#include <math.h>
#include <stdio.h>
#include <stdlib.h>
#include <string.h>

int main()
{
    int n,i,j,k;
    char s[10][100];
    scanf("%d",&n);
    
    for(j=0;j<n;j++){
        int num[26]={0},m[26],t=100000;
        scanf("%s",s[j]);
        
        for(i=strlen(s[j])-1;i>-1;i--){
            k=s[j][i]-97;
            num[k]++;
            if(num[k]==1)
                m[k]=i;
        }
        for(k=0;k<26;k++){
            if(num[k]==1)
                if(m[k]<=t)
                    t=m[k];
        }
        if(t<100000)
            printf("%c\n",s[j][t]);
        else
            printf("no\n");
    } 
}