; ModuleID = 'source-C-CXX/36/909.c'
source_filename = "source-C-CXX/36/909.c"
target datalayout = "e-m:e-p270:32:32-p271:32:32-p272:64:64-i64:64-f80:128-n8:16:32:64-S128"
target triple = "x86_64-pc-linux-gnu"

@.str = private unnamed_addr constant [3 x i8] c"%d\00", align 1
@.str.1 = private unnamed_addr constant [3 x i8] c"%s\00", align 1
@.str.2 = private unnamed_addr constant [4 x i8] c"%c\0A\00", align 1
@str = private unnamed_addr constant [3 x i8] c"no\00", align 1

; Function Attrs: nofree nounwind sspstrong uwtable
define dso_local i32 @main() local_unnamed_addr #0 {
  %1 = alloca i32, align 4
  %2 = alloca [10 x [100 x i8]], align 16
  %3 = alloca [26 x i32], align 16
  %4 = alloca [26 x i32], align 16
  %5 = bitcast i32* %1 to i8*
  call void @llvm.lifetime.start.p0i8(i64 4, i8* nonnull %5) #6
  %6 = getelementptr inbounds [10 x [100 x i8]], [10 x [100 x i8]]* %2, i64 0, i64 0, i64 0
  call void @llvm.lifetime.start.p0i8(i64 1000, i8* nonnull %6) #6
  %7 = call i32 (i8*, ...) @__isoc99_scanf(i8* getelementptr inbounds ([3 x i8], [3 x i8]* @.str, i64 0, i64 0), i32* nonnull %1)
  %8 = bitcast [26 x i32]* %3 to i8*
  %9 = bitcast [26 x i32]* %4 to i8*
  %10 = load i32, i32* %1, align 4, !tbaa !5
  %11 = icmp sgt i32 %10, 0
  br i1 %11, label %12, label %288

12:                                               ; preds = %0
  %13 = getelementptr inbounds [26 x i32], [26 x i32]* %3, i64 0, i64 0
  %14 = getelementptr inbounds [26 x i32], [26 x i32]* %4, i64 0, i64 0
  %15 = getelementptr inbounds [26 x i32], [26 x i32]* %3, i64 0, i64 1
  %16 = getelementptr inbounds [26 x i32], [26 x i32]* %4, i64 0, i64 1
  %17 = getelementptr inbounds [26 x i32], [26 x i32]* %3, i64 0, i64 2
  %18 = getelementptr inbounds [26 x i32], [26 x i32]* %4, i64 0, i64 2
  %19 = getelementptr inbounds [26 x i32], [26 x i32]* %3, i64 0, i64 3
  %20 = getelementptr inbounds [26 x i32], [26 x i32]* %4, i64 0, i64 3
  %21 = getelementptr inbounds [26 x i32], [26 x i32]* %3, i64 0, i64 4
  %22 = getelementptr inbounds [26 x i32], [26 x i32]* %4, i64 0, i64 4
  %23 = getelementptr inbounds [26 x i32], [26 x i32]* %3, i64 0, i64 5
  %24 = getelementptr inbounds [26 x i32], [26 x i32]* %4, i64 0, i64 5
  %25 = getelementptr inbounds [26 x i32], [26 x i32]* %3, i64 0, i64 6
  %26 = getelementptr inbounds [26 x i32], [26 x i32]* %4, i64 0, i64 6
  %27 = getelementptr inbounds [26 x i32], [26 x i32]* %3, i64 0, i64 7
  %28 = getelementptr inbounds [26 x i32], [26 x i32]* %4, i64 0, i64 7
  %29 = getelementptr inbounds [26 x i32], [26 x i32]* %3, i64 0, i64 8
  %30 = getelementptr inbounds [26 x i32], [26 x i32]* %4, i64 0, i64 8
  %31 = getelementptr inbounds [26 x i32], [26 x i32]* %3, i64 0, i64 9
  %32 = getelementptr inbounds [26 x i32], [26 x i32]* %4, i64 0, i64 9
  %33 = getelementptr inbounds [26 x i32], [26 x i32]* %3, i64 0, i64 10
  %34 = getelementptr inbounds [26 x i32], [26 x i32]* %4, i64 0, i64 10
  %35 = getelementptr inbounds [26 x i32], [26 x i32]* %3, i64 0, i64 11
  %36 = getelementptr inbounds [26 x i32], [26 x i32]* %4, i64 0, i64 11
  %37 = getelementptr inbounds [26 x i32], [26 x i32]* %3, i64 0, i64 12
  %38 = getelementptr inbounds [26 x i32], [26 x i32]* %4, i64 0, i64 12
  %39 = getelementptr inbounds [26 x i32], [26 x i32]* %3, i64 0, i64 13
  %40 = getelementptr inbounds [26 x i32], [26 x i32]* %4, i64 0, i64 13
  %41 = getelementptr inbounds [26 x i32], [26 x i32]* %3, i64 0, i64 14
  %42 = getelementptr inbounds [26 x i32], [26 x i32]* %4, i64 0, i64 14
  %43 = getelementptr inbounds [26 x i32], [26 x i32]* %3, i64 0, i64 15
  %44 = getelementptr inbounds [26 x i32], [26 x i32]* %4, i64 0, i64 15
  %45 = getelementptr inbounds [26 x i32], [26 x i32]* %3, i64 0, i64 16
  %46 = getelementptr inbounds [26 x i32], [26 x i32]* %4, i64 0, i64 16
  %47 = getelementptr inbounds [26 x i32], [26 x i32]* %3, i64 0, i64 17
  %48 = getelementptr inbounds [26 x i32], [26 x i32]* %4, i64 0, i64 17
  %49 = getelementptr inbounds [26 x i32], [26 x i32]* %3, i64 0, i64 18
  %50 = getelementptr inbounds [26 x i32], [26 x i32]* %4, i64 0, i64 18
  %51 = getelementptr inbounds [26 x i32], [26 x i32]* %3, i64 0, i64 19
  %52 = getelementptr inbounds [26 x i32], [26 x i32]* %4, i64 0, i64 19
  %53 = getelementptr inbounds [26 x i32], [26 x i32]* %3, i64 0, i64 20
  %54 = getelementptr inbounds [26 x i32], [26 x i32]* %4, i64 0, i64 20
  %55 = getelementptr inbounds [26 x i32], [26 x i32]* %3, i64 0, i64 21
  %56 = getelementptr inbounds [26 x i32], [26 x i32]* %4, i64 0, i64 21
  %57 = getelementptr inbounds [26 x i32], [26 x i32]* %3, i64 0, i64 22
  %58 = getelementptr inbounds [26 x i32], [26 x i32]* %4, i64 0, i64 22
  %59 = getelementptr inbounds [26 x i32], [26 x i32]* %3, i64 0, i64 23
  %60 = getelementptr inbounds [26 x i32], [26 x i32]* %4, i64 0, i64 23
  %61 = getelementptr inbounds [26 x i32], [26 x i32]* %3, i64 0, i64 24
  %62 = getelementptr inbounds [26 x i32], [26 x i32]* %4, i64 0, i64 24
  %63 = getelementptr inbounds [26 x i32], [26 x i32]* %3, i64 0, i64 25
  %64 = getelementptr inbounds [26 x i32], [26 x i32]* %4, i64 0, i64 25
  br label %65

65:                                               ; preds = %12, %283
  %66 = phi i64 [ 0, %12 ], [ %284, %283 ]
  call void @llvm.lifetime.start.p0i8(i64 104, i8* nonnull %8) #6
  call void @llvm.memset.p0i8.i64(i8* noundef nonnull align 16 dereferenceable(104) %8, i8 0, i64 104, i1 false)
  call void @llvm.lifetime.start.p0i8(i64 104, i8* nonnull %9) #6
  %67 = getelementptr inbounds [10 x [100 x i8]], [10 x [100 x i8]]* %2, i64 0, i64 %66, i64 0
  %68 = call i32 (i8*, ...) @__isoc99_scanf(i8* getelementptr inbounds ([3 x i8], [3 x i8]* @.str.1, i64 0, i64 0), i8* nonnull %67)
  %69 = call i64 @strlen(i8* noundef nonnull %67) #7
  %70 = trunc i64 %69 to i32
  %71 = add i32 %70, -1
  %72 = icmp sgt i32 %71, -1
  br i1 %72, label %73, label %93

73:                                               ; preds = %65
  %74 = and i32 %70, 1
  %75 = icmp eq i32 %74, 0
  br i1 %75, label %90, label %76

76:                                               ; preds = %73
  %77 = zext i32 %71 to i64
  %78 = getelementptr inbounds [10 x [100 x i8]], [10 x [100 x i8]]* %2, i64 0, i64 %66, i64 %77
  %79 = load i8, i8* %78, align 1, !tbaa !9
  %80 = sext i8 %79 to i64
  %81 = add nsw i64 %80, -97
  %82 = getelementptr inbounds [26 x i32], [26 x i32]* %3, i64 0, i64 %81
  %83 = load i32, i32* %82, align 4, !tbaa !5
  %84 = add nsw i32 %83, 1
  store i32 %84, i32* %82, align 4, !tbaa !5
  %85 = icmp eq i32 %83, 0
  br i1 %85, label %86, label %88

86:                                               ; preds = %76
  %87 = getelementptr inbounds [26 x i32], [26 x i32]* %4, i64 0, i64 %81
  store i32 %71, i32* %87, align 4, !tbaa !5
  br label %88

88:                                               ; preds = %86, %76
  %89 = add i32 %70, -2
  br label %90

90:                                               ; preds = %88, %73
  %91 = phi i32 [ %89, %88 ], [ %71, %73 ]
  %92 = icmp eq i32 %71, 0
  br i1 %92, label %93, label %251

93:                                               ; preds = %90, %291, %65
  %94 = load i32, i32* %13, align 16, !tbaa !5
  %95 = icmp eq i32 %94, 1
  %96 = load i32, i32* %14, align 16
  %97 = icmp slt i32 %96, 100000
  %98 = select i1 %95, i1 %97, i1 false
  %99 = select i1 %98, i32 %96, i32 100000
  %100 = load i32, i32* %15, align 4, !tbaa !5
  %101 = icmp eq i32 %100, 1
  %102 = load i32, i32* %16, align 4
  %103 = icmp sgt i32 %102, %99
  %104 = select i1 %103, i32 %99, i32 %102
  %105 = select i1 %101, i32 %104, i32 %99
  %106 = load i32, i32* %17, align 8, !tbaa !5
  %107 = icmp eq i32 %106, 1
  %108 = load i32, i32* %18, align 8
  %109 = icmp sgt i32 %108, %105
  %110 = select i1 %109, i32 %105, i32 %108
  %111 = select i1 %107, i32 %110, i32 %105
  %112 = load i32, i32* %19, align 4, !tbaa !5
  %113 = icmp eq i32 %112, 1
  %114 = load i32, i32* %20, align 4
  %115 = icmp sgt i32 %114, %111
  %116 = select i1 %115, i32 %111, i32 %114
  %117 = select i1 %113, i32 %116, i32 %111
  %118 = load i32, i32* %21, align 16, !tbaa !5
  %119 = icmp eq i32 %118, 1
  %120 = load i32, i32* %22, align 16
  %121 = icmp sgt i32 %120, %117
  %122 = select i1 %121, i32 %117, i32 %120
  %123 = select i1 %119, i32 %122, i32 %117
  %124 = load i32, i32* %23, align 4, !tbaa !5
  %125 = icmp eq i32 %124, 1
  %126 = load i32, i32* %24, align 4
  %127 = icmp sgt i32 %126, %123
  %128 = select i1 %127, i32 %123, i32 %126
  %129 = select i1 %125, i32 %128, i32 %123
  %130 = load i32, i32* %25, align 8, !tbaa !5
  %131 = icmp eq i32 %130, 1
  %132 = load i32, i32* %26, align 8
  %133 = icmp sgt i32 %132, %129
  %134 = select i1 %133, i32 %129, i32 %132
  %135 = select i1 %131, i32 %134, i32 %129
  %136 = load i32, i32* %27, align 4, !tbaa !5
  %137 = icmp eq i32 %136, 1
  %138 = load i32, i32* %28, align 4
  %139 = icmp sgt i32 %138, %135
  %140 = select i1 %139, i32 %135, i32 %138
  %141 = select i1 %137, i32 %140, i32 %135
  %142 = load i32, i32* %29, align 16, !tbaa !5
  %143 = icmp eq i32 %142, 1
  %144 = load i32, i32* %30, align 16
  %145 = icmp sgt i32 %144, %141
  %146 = select i1 %145, i32 %141, i32 %144
  %147 = select i1 %143, i32 %146, i32 %141
  %148 = load i32, i32* %31, align 4, !tbaa !5
  %149 = icmp eq i32 %148, 1
  %150 = load i32, i32* %32, align 4
  %151 = icmp sgt i32 %150, %147
  %152 = select i1 %151, i32 %147, i32 %150
  %153 = select i1 %149, i32 %152, i32 %147
  %154 = load i32, i32* %33, align 8, !tbaa !5
  %155 = icmp eq i32 %154, 1
  %156 = load i32, i32* %34, align 8
  %157 = icmp sgt i32 %156, %153
  %158 = select i1 %157, i32 %153, i32 %156
  %159 = select i1 %155, i32 %158, i32 %153
  %160 = load i32, i32* %35, align 4, !tbaa !5
  %161 = icmp eq i32 %160, 1
  %162 = load i32, i32* %36, align 4
  %163 = icmp sgt i32 %162, %159
  %164 = select i1 %163, i32 %159, i32 %162
  %165 = select i1 %161, i32 %164, i32 %159
  %166 = load i32, i32* %37, align 16, !tbaa !5
  %167 = icmp eq i32 %166, 1
  %168 = load i32, i32* %38, align 16
  %169 = icmp sgt i32 %168, %165
  %170 = select i1 %169, i32 %165, i32 %168
  %171 = select i1 %167, i32 %170, i32 %165
  %172 = load i32, i32* %39, align 4, !tbaa !5
  %173 = icmp eq i32 %172, 1
  %174 = load i32, i32* %40, align 4
  %175 = icmp sgt i32 %174, %171
  %176 = select i1 %175, i32 %171, i32 %174
  %177 = select i1 %173, i32 %176, i32 %171
  %178 = load i32, i32* %41, align 8, !tbaa !5
  %179 = icmp eq i32 %178, 1
  %180 = load i32, i32* %42, align 8
  %181 = icmp sgt i32 %180, %177
  %182 = select i1 %181, i32 %177, i32 %180
  %183 = select i1 %179, i32 %182, i32 %177
  %184 = load i32, i32* %43, align 4, !tbaa !5
  %185 = icmp eq i32 %184, 1
  %186 = load i32, i32* %44, align 4
  %187 = icmp sgt i32 %186, %183
  %188 = select i1 %187, i32 %183, i32 %186
  %189 = select i1 %185, i32 %188, i32 %183
  %190 = load i32, i32* %45, align 16, !tbaa !5
  %191 = icmp eq i32 %190, 1
  %192 = load i32, i32* %46, align 16
  %193 = icmp sgt i32 %192, %189
  %194 = select i1 %193, i32 %189, i32 %192
  %195 = select i1 %191, i32 %194, i32 %189
  %196 = load i32, i32* %47, align 4, !tbaa !5
  %197 = icmp eq i32 %196, 1
  %198 = load i32, i32* %48, align 4
  %199 = icmp sgt i32 %198, %195
  %200 = select i1 %199, i32 %195, i32 %198
  %201 = select i1 %197, i32 %200, i32 %195
  %202 = load i32, i32* %49, align 8, !tbaa !5
  %203 = icmp eq i32 %202, 1
  %204 = load i32, i32* %50, align 8
  %205 = icmp sgt i32 %204, %201
  %206 = select i1 %205, i32 %201, i32 %204
  %207 = select i1 %203, i32 %206, i32 %201
  %208 = load i32, i32* %51, align 4, !tbaa !5
  %209 = icmp eq i32 %208, 1
  %210 = load i32, i32* %52, align 4
  %211 = icmp sgt i32 %210, %207
  %212 = select i1 %211, i32 %207, i32 %210
  %213 = select i1 %209, i32 %212, i32 %207
  %214 = load i32, i32* %53, align 16, !tbaa !5
  %215 = icmp eq i32 %214, 1
  %216 = load i32, i32* %54, align 16
  %217 = icmp sgt i32 %216, %213
  %218 = select i1 %217, i32 %213, i32 %216
  %219 = select i1 %215, i32 %218, i32 %213
  %220 = load i32, i32* %55, align 4, !tbaa !5
  %221 = icmp eq i32 %220, 1
  %222 = load i32, i32* %56, align 4
  %223 = icmp sgt i32 %222, %219
  %224 = select i1 %223, i32 %219, i32 %222
  %225 = select i1 %221, i32 %224, i32 %219
  %226 = load i32, i32* %57, align 8, !tbaa !5
  %227 = icmp eq i32 %226, 1
  %228 = load i32, i32* %58, align 8
  %229 = icmp sgt i32 %228, %225
  %230 = select i1 %229, i32 %225, i32 %228
  %231 = select i1 %227, i32 %230, i32 %225
  %232 = load i32, i32* %59, align 4, !tbaa !5
  %233 = icmp eq i32 %232, 1
  %234 = load i32, i32* %60, align 4
  %235 = icmp sgt i32 %234, %231
  %236 = select i1 %235, i32 %231, i32 %234
  %237 = select i1 %233, i32 %236, i32 %231
  %238 = load i32, i32* %61, align 16, !tbaa !5
  %239 = icmp eq i32 %238, 1
  %240 = load i32, i32* %62, align 16
  %241 = icmp sgt i32 %240, %237
  %242 = select i1 %241, i32 %237, i32 %240
  %243 = select i1 %239, i32 %242, i32 %237
  %244 = load i32, i32* %63, align 4, !tbaa !5
  %245 = icmp eq i32 %244, 1
  %246 = load i32, i32* %64, align 4
  %247 = icmp sgt i32 %246, %243
  %248 = select i1 %247, i32 %243, i32 %246
  %249 = select i1 %245, i32 %248, i32 %243
  %250 = icmp slt i32 %249, 100000
  br i1 %250, label %275, label %281

251:                                              ; preds = %90, %291
  %252 = phi i32 [ %292, %291 ], [ %91, %90 ]
  %253 = zext i32 %252 to i64
  %254 = getelementptr inbounds [10 x [100 x i8]], [10 x [100 x i8]]* %2, i64 0, i64 %66, i64 %253
  %255 = load i8, i8* %254, align 1, !tbaa !9
  %256 = sext i8 %255 to i64
  %257 = add nsw i64 %256, -97
  %258 = getelementptr inbounds [26 x i32], [26 x i32]* %3, i64 0, i64 %257
  %259 = load i32, i32* %258, align 4, !tbaa !5
  %260 = add nsw i32 %259, 1
  store i32 %260, i32* %258, align 4, !tbaa !5
  %261 = icmp eq i32 %259, 0
  br i1 %261, label %262, label %264

262:                                              ; preds = %251
  %263 = getelementptr inbounds [26 x i32], [26 x i32]* %4, i64 0, i64 %257
  store i32 %252, i32* %263, align 4, !tbaa !5
  br label %264

264:                                              ; preds = %251, %262
  %265 = add i32 %252, -1
  %266 = zext i32 %265 to i64
  %267 = getelementptr inbounds [10 x [100 x i8]], [10 x [100 x i8]]* %2, i64 0, i64 %66, i64 %266
  %268 = load i8, i8* %267, align 1, !tbaa !9
  %269 = sext i8 %268 to i64
  %270 = add nsw i64 %269, -97
  %271 = getelementptr inbounds [26 x i32], [26 x i32]* %3, i64 0, i64 %270
  %272 = load i32, i32* %271, align 4, !tbaa !5
  %273 = add nsw i32 %272, 1
  store i32 %273, i32* %271, align 4, !tbaa !5
  %274 = icmp eq i32 %272, 0
  br i1 %274, label %289, label %291

275:                                              ; preds = %93
  %276 = sext i32 %249 to i64
  %277 = getelementptr inbounds [10 x [100 x i8]], [10 x [100 x i8]]* %2, i64 0, i64 %66, i64 %276
  %278 = load i8, i8* %277, align 1, !tbaa !9
  %279 = sext i8 %278 to i32
  %280 = call i32 (i8*, ...) @printf(i8* nonnull dereferenceable(1) getelementptr inbounds ([4 x i8], [4 x i8]* @.str.2, i64 0, i64 0), i32 %279)
  br label %283

281:                                              ; preds = %93
  %282 = call i32 @puts(i8* nonnull dereferenceable(1) getelementptr inbounds ([3 x i8], [3 x i8]* @str, i64 0, i64 0))
  br label %283

283:                                              ; preds = %281, %275
  call void @llvm.lifetime.end.p0i8(i64 104, i8* nonnull %9) #6
  call void @llvm.lifetime.end.p0i8(i64 104, i8* nonnull %8) #6
  %284 = add nuw nsw i64 %66, 1
  %285 = load i32, i32* %1, align 4, !tbaa !5
  %286 = sext i32 %285 to i64
  %287 = icmp slt i64 %284, %286
  br i1 %287, label %65, label %288, !llvm.loop !10

288:                                              ; preds = %283, %0
  call void @llvm.lifetime.end.p0i8(i64 1000, i8* nonnull %6) #6
  call void @llvm.lifetime.end.p0i8(i64 4, i8* nonnull %5) #6
  ret i32 0

289:                                              ; preds = %264
  %290 = getelementptr inbounds [26 x i32], [26 x i32]* %4, i64 0, i64 %270
  store i32 %265, i32* %290, align 4, !tbaa !5
  br label %291

291:                                              ; preds = %289, %264
  %292 = add i32 %252, -2
  %293 = icmp sgt i32 %292, -1
  br i1 %293, label %251, label %93, !llvm.loop !12
}

; Function Attrs: argmemonly mustprogress nofree nosync nounwind willreturn
declare void @llvm.lifetime.start.p0i8(i64 immarg, i8* nocapture) #1

; Function Attrs: nofree nounwind
declare noundef i32 @__isoc99_scanf(i8* nocapture noundef readonly, ...) local_unnamed_addr #2

; Function Attrs: argmemonly mustprogress nofree nounwind willreturn writeonly
declare void @llvm.memset.p0i8.i64(i8* nocapture writeonly, i8, i64, i1 immarg) #3

; Function Attrs: argmemonly mustprogress nofree nounwind readonly willreturn
declare i64 @strlen(i8* nocapture) local_unnamed_addr #4

; Function Attrs: nofree nounwind
declare noundef i32 @printf(i8* nocapture noundef readonly, ...) local_unnamed_addr #2

; Function Attrs: argmemonly mustprogress nofree nosync nounwind willreturn
declare void @llvm.lifetime.end.p0i8(i64 immarg, i8* nocapture) #1

; Function Attrs: nofree nounwind
declare noundef i32 @puts(i8* nocapture noundef readonly) local_unnamed_addr #5


!llvm.module.flags = !{!0, !1, !2, !3}
!llvm.ident = !{!4}

!0 = !{i32 1, !"wchar_size", i32 4}
!1 = !{i32 7, !"PIC Level", i32 2}
!2 = !{i32 7, !"PIE Level", i32 2}
!3 = !{i32 7, !"uwtable", i32 1}
!4 = !{!"clang version 13.0.0"}
!5 = !{!6, !6, i64 0}
!6 = !{!"int", !7, i64 0}
!7 = !{!"omnipotent char", !8, i64 0}
!8 = !{!"Simple C/C++ TBAA"}
!9 = !{!7, !7, i64 0}
!10 = distinct !{!10, !11}
!11 = !{!"llvm.loop.mustprogress"}
!12 = distinct !{!12, !11}
